(lp0
(S'AAH11'
p1
I780
F21.3167
F-157.9
F21.8833
F-159.3333
tp2
a(S'AAH12'
p3
I600
F21.9833
F-159.3167
F21.3167
F-157.9833
tp4
a(S'AAH13'
p5
I780
F21.3167
F-157.9
F21.8333
F-159.3333
tp6
a(S'AAH14'
p7
I1620
F21.9667
F-159.35
F21.3167
F-158.05
tp8
a(S'AAH15'
p9
I1800
F21.25
F-158.0
F21.8833
F-159.3333
tp10
a(S'AAH16'
p11
I8760
F21.9833
F-159.3167
F21.65
F-158.7833
tp12
a(S'AAH17'
p13
I2220
F21.3167
F-157.9
F21.8333
F-159.3167
tp14
a(S'AAH18'
p15
I1860
F21.9833
F-159.3167
F21.3167
F-158.0333
tp16
a(S'AAH220'
p17
I9060
F21.3167
F-157.9
F20.75
F-156.5333
tp18
a(S'AAH2202'
p19
I780
F21.3167
F-157.9
F20.8
F-156.5
tp20
a(S'AAH2203'
p21
I960
F20.9
F-156.4167
F21.2333
F-157.95
tp22
a(S'AAH221'
p23
I6660
F20.95
F-157.5167
F21.25
F-157.9333
tp24
a(S'AAH222'
p25
I0
F21.3167
F-157.8833
F21.3167
F-157.8833
tp26
a(S'AAH26'
p27
I660
F21.3167
F-157.9
F20.7833
F-156.5
tp28
a(S'AAH27'
p29
I840
F20.9
F-156.4167
F21.2167
F-157.9333
tp30
a(S'AAH28'
p31
I1080
F21.3167
F-157.9
F20.8167
F-156.4667
tp32
a(S'AAH29'
p33
I1380
F20.9167
F-156.4
F21.2833
F-157.8833
tp34
a(S'AAH42'
p35
I1860
F20.9167
F-156.4
F19.8667
F-156.0167
tp36
a(S'AAH44'
p37
I2340
F21.3167
F-157.9
F19.75
F-156.0333
tp38
a(S'AAH4404'
p39
I1200
F21.3167
F-157.9
F19.8
F-156.0333
tp40
a(S'AAH4405'
p41
I1260
F19.7167
F-156.0667
F21.3
F-157.9667
tp42
a(S'AAH45'
p43
I9660
F19.7667
F-156.0833
F21.2
F-157.9333
tp44
a(S'AAH47'
p45
I3360
F19.7167
F-156.0667
F21.25
F-157.9833
tp46
a(S'AAH550'
p47
I1140
F21.3167
F-157.9
F19.7333
F-155.0
tp48
a(S'AAH551'
p49
I1320
F19.7167
F-155.0167
F21.3167
F-157.95
tp50
a(S'AAH56'
p51
I360
F20.0333
F-155.15
F19.8167
F-155.0333
tp52
a(S'AAH57'
p53
I10620
F19.7167
F-155.0167
F20.7667
F-157.1167
tp54
a(S'AAH58'
p55
I2880
F21.0333
F-157.3667
F19.7833
F-154.9833
tp56
a(S'AAH59'
p57
I4020
F19.7167
F-155.0167
F21.2833
F-157.95
tp58
a(S'AAL045'
p59
I1140
F42.16
F-73.1122
F42.03
F-73.0589
tp60
a(S'AAL1'
p61
I32520
F41.2075
F-74.8553
F33.9439
F-118.3247
tp62
a(S'AAL10'
p63
I8340
F33.815
F-114.9469
F40.65
F-73.8667
tp64
a(S'AAL1001'
p65
I1560
F32.4194
F-106.3483
F32.1664
F-110.9992
tp66
a(S'AAL1003'
p67
I31620
F28.8936
F-78.5775
F25.8253
F-80.3653
tp68
a(S'AAL1006'
p69
I10680
F30.3456
F-97.7267
F32.1261
F-106.9858
tp70
a(S'AAL1008'
p71
I21600
F40.8772
F-115.7722
F42.0025
F-87.8789
tp72
a(S'AAL1009'
p73
I16740
F25.7986
F-80.2561
F17.35
F-63.0333
tp74
a(S'AAL101'
p75
I18180
F51.45
F-60.1833
F40.6
F-73.8
tp76
a(S'AAL1010'
p77
I20220
F37.9919
F-121.0906
F32.8333
F-97.0
tp78
a(S'AAL1011'
p79
I4200
F35.4042
F-97.6067
F32.8122
F-97.0564
tp80
a(S'AAL1012'
p81
I29700
F32.9
F-97.0167
F33.4803
F-96.3036
tp82
a(S'AAL1019'
p83
I15060
F25.6011
F-79.4903
F17.4667
F-63.2667
tp84
a(S'AAL102'
p85
I16140
F21.35
F-157.0167
F32.86
F-97.0558
tp86
a(S'AAL1021'
p87
I2160
F25.7986
F-80.2583
F24.0711
F-79.6375
tp88
a(S'AAL1022'
p89
I840
F32.9167
F-97.05
F32.9983
F-97.5033
tp90
a(S'AAL1023'
p91
I2460
F32.9167
F-97.05
F32.6111
F-98.9053
tp92
a(S'AAL1024'
p93
I0
F32.9
F-97.05
F32.9
F-97.05
tp94
a(S'AAL1025'
p95
I26400
F34.6544
F-91.1228
F39.5303
F-77.4642
tp96
a(S'AAL1026'
p97
I11880
F19.7078
F-70.5675
F25.7822
F-80.3339
tp98
a(S'AAL1027'
p99
I3060
F39.3167
F-94.7
F32.8194
F-97.0519
tp100
a(S'AAL103'
p101
I19680
F32.9167
F-97.05
F34.05
F-117.45
tp102
a(S'AAL1032'
p103
I34620
F33.0169
F-96.56
F34.69
F-92.1117
tp104
a(S'AAL1033'
p105
I34680
F32.9167
F-97.0167
F35.8397
F-89.3458
tp106
a(S'AAL1034'
p107
I14880
F26.3881
F-100.3189
F32.6833
F-97.1
tp108
a(S'AAL1035'
p109
I2400
F37.9647
F-113.0553
F37.2858
F-121.8483
tp110
a(S'AAL1037'
p111
I21180
F32.9167
F-97.05
F48.5689
F-108.7611
tp112
a(S'AAL1038'
p113
I26820
F33.1203
F-96.2072
F43.6667
F-79.65
tp114
a(S'AAL1039'
p115
I6240
F39.3167
F-94.7
F32.81
F-97.0569
tp116
a(S'AAL1041'
p117
I13620
F32.9
F-97.0167
F35.1519
F-80.965
tp118
a(S'AAL1042'
p119
I8220
F32.7667
F-117.25
F25.7936
F-80.3828
tp120
a(S'AAL1044'
p121
I11820
F41.8833
F-87.9
F31.1317
F-82.2906
tp122
a(S'AAL1045'
p123
I15900
F44.5
F-79.5
F32.8472
F-97.0111
tp124
a(S'AAL1046'
p125
I19140
F32.9
F-97.0167
F32.8575
F-97.0558
tp126
a(S'AAL1047'
p127
I15900
F42.5203
F-95.3472
F33.95
F-118.3833
tp128
a(S'AAL105'
p129
I4140
F57.0333
F-38.45
F55.9
F-45.9833
tp130
a(S'AAL1051'
p131
I8700
F29.8042
F-81.7508
F41.9833
F-87.85
tp132
a(S'AAL1052'
p133
I6300
F37.635
F-122.3625
F32.8003
F-97.0269
tp134
a(S'AAL1054'
p135
I7980
F32.9167
F-97.0167
F36.1403
F-86.6706
tp136
a(S'AAL1055'
p137
I22080
F32.9
F-97.05
F32.0572
F-110.6614
tp138
a(S'AAL1058'
p139
I1920
F26.6411
F-91.5194
F32.87
F-96.9731
tp140
a(S'AAL1060'
p141
I13920
F34.3414
F-113.8194
F41.9647
F-87.8331
tp142
a(S'AAL1061'
p143
I12660
F25.7983
F-80.2653
F33.6167
F-84.35
tp144
a(S'AAL1062'
p145
I7140
F33.9322
F-118.4492
F41.9667
F-87.85
tp146
a(S'AAL1063'
p147
I23400
F42.1725
F-94.7919
F33.9569
F-118.3689
tp148
a(S'AAL1066'
p149
I10680
F25.2636
F-98.1553
F30.0717
F-98.3981
tp150
a(S'AAL1070'
p151
I10860
F47.4306
F-122.3097
F25.7958
F-80.3736
tp152
a(S'AAL1073'
p153
I5700
F40.7569
F-73.8475
F36.9614
F-76.3042
tp154
a(S'AAL1074'
p155
I5520
F28.7694
F-100.6656
F32.8167
F-97.05
tp156
a(S'AAL1076'
p157
I31260
F41.9667
F-87.95
F33.6028
F-116.9425
tp158
a(S'AAL1078'
p159
I34560
F39.1017
F-86.7803
F30.7842
F-82.1139
tp160
a(S'AAL108'
p161
I20040
F33.95
F-118.45
F33.9667
F-118.3167
tp162
a(S'AAL1080'
p163
I10980
F31.8
F-106.3558
F32.2325
F-99.7786
tp164
a(S'AAL1081'
p165
I16380
F28.45
F-81.3167
F31.8011
F-94.0853
tp166
a(S'AAL1082'
p167
I24240
F36.0758
F-115.1178
F41.9644
F-87.9006
tp168
a(S'AAL1085'
p169
I12120
F40.65
F-73.75
F25.7972
F-80.3092
tp170
a(S'AAL1086'
p171
I26640
F32.3392
F-102.7864
F32.7708
F-114.5956
tp172
a(S'AAL1087'
p173
I16380
F39.1136
F-93.5497
F30.0133
F-104.3411
tp174
a(S'AAL1088'
p175
I15120
F35.5839
F-111.5361
F34.3661
F-101.615
tp176
a(S'AAL1089'
p177
I14640
F25.3483
F-78.9836
F16.4167
F-63.2
tp178
a(S'AAL109'
p179
I26520
F33.2111
F-97.1258
F33.8247
F-98.1739
tp180
a(S'AAL1090'
p181
I8760
F35.0428
F-106.5744
F32.8894
F-97.0547
tp182
a(S'AAL1093'
p183
I3180
F42.8861
F-111.8914
F47.4608
F-122.3114
tp184
a(S'AAL1094'
p185
I15540
F46.4058
F-121.1236
F32.8533
F-97.0111
tp186
a(S'AAL1095'
p187
I26820
F32.2108
F-104.0422
F32.1992
F-102.7886
tp188
a(S'AAL1096'
p189
I10560
F26.075
F-80.1297
F41.9839
F-87.7997
tp190
a(S'AAL1097'
p191
I5340
F32.9167
F-97.05
F29.3025
F-98.6153
tp192
a(S'AAL1098'
p193
I19560
F44.9
F-93.2667
F26.0697
F-81.2164
tp194
a(S'AAL1099'
p195
I20820
F36.9078
F-76.1867
F32.845
F-97.0108
tp196
a(S'AAL110'
p197
I14700
F18.45
F-65.9667
F25.7958
F-80.3736
tp198
a(S'AAL1100'
p199
I7080
F32.9167
F-97.0167
F40.7
F-73.95
tp200
a.